; Function Attrs: nofree norecurse nosync nounwind memory(argmem: read) uwtable
define range(i32 0, 2) i32 @isMatrix2Unitary(ptr noundef readonly byval(%struct.ComplexMatrix2) align 8 captures(none) %0) local_unnamed_addr #6 {
  %2 = getelementptr inbounds nuw i8, ptr %0, i64 32
  br label %.preheader46

.preheader46:                                     ; preds = %1, %.critedge
  %.not54 = phi i1 [ true, %1 ], [ false, %.critedge ]
  %indvars.iv63 = phi i64 [ 0, %1 ], [ 1, %.critedge ]
  br label %.preheader

3:                                                ; preds = %4
  br i1 %.not, label %.preheader, label %.critedge

.preheader:                                       ; preds = %.preheader46, %3
  %.not = phi i1 [ true, %.preheader46 ], [ false, %3 ]
  %indvars.iv60 = phi i64 [ 0, %.preheader46 ], [ 1, %3 ]
  br label %11

4:                                                ; preds = %11
  %5 = icmp eq i64 %indvars.iv63, %indvars.iv60
  %6 = uitofp i1 %5 to double
  %7 = fsub double %23, %6
  %8 = fmul double %7, %7
  %9 = tail call double @llvm.fmuladd.f64(double %27, double %27, double %8)
  %10 = fcmp ule double %9, 1.000000e-26
  br i1 %10, label %3, label %.loopexit

11:                                               ; preds = %.preheader, %11
  %12 = phi i1 [ true, %.preheader ], [ false, %11 ]
  %indvars.iv = phi i64 [ 0, %.preheader ], [ 1, %11 ]
  %.03851 = phi double [ 0.000000e+00, %.preheader ], [ %23, %11 ]
  %.04549 = phi double [ 0.000000e+00, %.preheader ], [ %27, %11 ]
  %13 = getelementptr inbounds nuw [2 x [2 x double]], ptr %0, i64 0, i64 %indvars.iv63, i64 %indvars.iv
  %14 = load double, ptr %13, align 8, !tbaa !9
  %15 = getelementptr inbounds nuw [2 x [2 x double]], ptr %0, i64 0, i64 %indvars.iv60, i64 %indvars.iv
  %16 = load double, ptr %15, align 8, !tbaa !9
  %17 = getelementptr inbounds nuw [2 x [2 x double]], ptr %2, i64 0, i64 %indvars.iv63, i64 %indvars.iv
  %18 = load double, ptr %17, align 8, !tbaa !9
  %19 = getelementptr inbounds nuw [2 x [2 x double]], ptr %2, i64 0, i64 %indvars.iv60, i64 %indvars.iv
  %20 = load double, ptr %19, align 8, !tbaa !9
  %21 = fmul double %18, %20
  %22 = tail call double @llvm.fmuladd.f64(double %14, double %16, double %21)
  %23 = fadd double %.03851, %22
  %24 = fneg double %20
  %25 = fmul double %14, %24
  %26 = tail call double @llvm.fmuladd.f64(double %18, double %16, double %25)
  %27 = fadd double %.04549, %26
  br i1 %12, label %11, label %4

.critedge:                                        ; preds = %3
  br i1 %.not54, label %.preheader46, label %.loopexit

.loopexit:                                        ; preds = %.critedge, %4
  %spec.select = zext i1 %10 to i32
  ret i32 %spec.select
}